; Function Attrs: mustprogress uwtable
define hidden void @_ZN19OpenColorIO_v2_4dev9CDLOpDataC2Ev(ptr noundef nonnull align 8 dereferenceable(256) %this) unnamed_addr #3 align 2 personality ptr @__gxx_personality_v0 {
invoke.cont4:
  tail call void @_ZN19OpenColorIO_v2_4dev6OpDataC2Ev(ptr noundef nonnull align 8 dereferenceable(168) %this)
  store ptr getelementptr inbounds ({ [13 x ptr] }, ptr @_ZTVN19OpenColorIO_v2_4dev9CDLOpDataE, i64 0, i32 0, i64 2), ptr %this, align 8
  %m_style = getelementptr inbounds i8, ptr %this, i64 168
  store i32 2, ptr %m_style, align 8
  %m_slopeParams = getelementptr inbounds i8, ptr %this, i64 176
  store <2 x double> <double 1.000000e+00, double 1.000000e+00>, ptr %m_slopeParams, align 8
  %arrayidx5.i.i = getelementptr inbounds i8, ptr %this, i64 192
  store double 1.000000e+00, ptr %arrayidx5.i.i, align 8
  %m_offsetParams = getelementptr inbounds i8, ptr %this, i64 200
  %m_powerParams = getelementptr inbounds i8, ptr %this, i64 224
  tail call void @llvm.memset.p0.i64(ptr noundef nonnull align 8 dereferenceable(24) %m_offsetParams, i8 0, i64 24, i1 false)
  store <2 x double> <double 1.000000e+00, double 1.000000e+00>, ptr %m_powerParams, align 8
  %arrayidx5.i.i4 = getelementptr inbounds i8, ptr %this, i64 240
  store <2 x double> <double 1.000000e+00, double 1.000000e+00>, ptr %arrayidx5.i.i4, align 8
  ret void
}